; Function Attrs: mustprogress nounwind uwtable
define internal void @_ZN4node9inspector12_GLOBAL__N_111CallRequestINS0_24InspectorSessionDelegateEZNS1_18ThreadSafeDelegate21SendMessageToFrontendERKN12v8_inspector10StringViewEEUlPS3_E_ED2Ev(ptr nocapture noundef nonnull align 8 dereferenceable(24) %this) unnamed_addr #3 align 2 {
entry:
  store ptr getelementptr inbounds ({ [5 x ptr] }, ptr @_ZTVN4node9inspector12_GLOBAL__N_111CallRequestINS0_24InspectorSessionDelegateEZNS1_18ThreadSafeDelegate21SendMessageToFrontendERKN12v8_inspector10StringViewEEUlPS3_E_EE, i64 0, i32 0, i64 2), ptr %this, align 8
  %fn_ = getelementptr inbounds i8, ptr %this, i64 16
  %0 = load ptr, ptr %fn_, align 8
  %cmp.not.i.i = icmp eq ptr %0, null
  br i1 %cmp.not.i.i, label %_ZZN4node9inspector12_GLOBAL__N_118ThreadSafeDelegate21SendMessageToFrontendERKN12v8_inspector10StringViewEENUlPNS0_24InspectorSessionDelegateEE_D2Ev.exit, label %_ZNKSt14default_deleteIN12v8_inspector12StringBufferEEclEPS1_.exit.i.i

_ZNKSt14default_deleteIN12v8_inspector12StringBufferEEclEPS1_.exit.i.i: ; preds = %entry
  %vtable.i.i.i = load ptr, ptr %0, align 8
  %vfn.i.i.i = getelementptr inbounds i8, ptr %vtable.i.i.i, i64 8
  %1 = load ptr, ptr %vfn.i.i.i, align 8
  tail call void %1(ptr noundef nonnull align 8 dereferenceable(8) %0) #20
  br label %_ZZN4node9inspector12_GLOBAL__N_118ThreadSafeDelegate21SendMessageToFrontendERKN12v8_inspector10StringViewEENUlPNS0_24InspectorSessionDelegateEE_D2Ev.exit

_ZZN4node9inspector12_GLOBAL__N_118ThreadSafeDelegate21SendMessageToFrontendERKN12v8_inspector10StringViewEENUlPNS0_24InspectorSessionDelegateEE_D2Ev.exit: ; preds = %entry, %_ZNKSt14default_deleteIN12v8_inspector12StringBufferEEclEPS1_.exit.i.i
  store ptr null, ptr %fn_, align 8
  ret void
}